target datalayout = "e-m:e-p270:32:32-p271:32:32-p272:64:64-i64:64-i128:128-f80:128-n8:16:32:64-S128"
target triple = "x86_64-pc-linux-gnu"

@.str = private unnamed_addr constant [3 x i8] c"%s\00", align 1
@.str.63 = private unnamed_addr constant [3 x i8] c" \22\00", align 1
@.str.64 = private unnamed_addr constant [2 x i8] c"\22\00", align 1

; Function Attrs: nounwind uwtable
define void @h5tools_str_sprint_old_reference(ptr noundef %0, i64 noundef %1, i32 noundef %2, ptr noundef %3) #0 {
  %5 = alloca ptr, align 8
  %6 = alloca i64, align 8
  %7 = alloca i32, align 4
  %8 = alloca ptr, align 8
  %9 = alloca i64, align 8
  %10 = alloca i64, align 8
  %11 = alloca [1024 x i8], align 16
  store ptr %0, ptr %5, align 8, !tbaa !3
  store i64 %1, ptr %6, align 8, !tbaa !17
  store i32 %2, ptr %7, align 4, !tbaa !15
  store ptr %3, ptr %8, align 8, !tbaa !46
  call void @llvm.lifetime.start.p0(i64 8, ptr %9) #12
  store i64 -1, ptr %9, align 8, !tbaa !17
  call void @llvm.lifetime.start.p0(i64 8, ptr %10) #12
  store i64 -1, ptr %10, align 8, !tbaa !17
  call void @llvm.lifetime.start.p0(i64 1024, ptr %11) #12
  br label %12

12:                                               ; preds = %4
  br label %13

13:                                               ; preds = %12
  br label %14

14:                                               ; preds = %13
  %15 = load ptr, ptr %5, align 8, !tbaa !3
  %16 = call ptr (ptr, ptr, ...) @h5tools_str_append(ptr noundef %15, ptr noundef @.str.63)
  %17 = load i32, ptr %7, align 4, !tbaa !15
  %18 = icmp eq i32 %17, 1
  br i1 %18, label %19, label %48

19:                                               ; preds = %14
  %20 = load i64, ptr %6, align 8, !tbaa !17
  %21 = load i32, ptr %7, align 4, !tbaa !15
  %22 = load ptr, ptr %8, align 8, !tbaa !46
  %23 = call i64 @H5Rdereference2(i64 noundef %20, i64 noundef 0, i32 noundef %21, ptr noundef %22)
  store i64 %23, ptr %9, align 8, !tbaa !17
  %24 = load i64, ptr %9, align 8, !tbaa !17
  %25 = icmp sge i64 %24, 0
  br i1 %25, label %26, label %47

26:                                               ; preds = %19
  %27 = load i64, ptr %6, align 8, !tbaa !17
  %28 = load i32, ptr %7, align 4, !tbaa !15
  %29 = load ptr, ptr %8, align 8, !tbaa !46
  %30 = call i64 @H5Rget_region(i64 noundef %27, i32 noundef %28, ptr noundef %29)
  store i64 %30, ptr %10, align 8, !tbaa !17
  %31 = load i64, ptr %10, align 8, !tbaa !17
  %32 = icmp sge i64 %31, 0
  br i1 %32, label %33, label %44

33:                                               ; preds = %26
  %34 = load i64, ptr %9, align 8, !tbaa !17
  %35 = load i32, ptr %7, align 4, !tbaa !15
  %36 = load ptr, ptr %8, align 8, !tbaa !46
  %37 = getelementptr inbounds [1024 x i8], ptr %11, i64 0, i64 0
  %38 = call i64 @H5Rget_name(i64 noundef %34, i32 noundef %35, ptr noundef %36, ptr noundef %37, i64 noundef 1024)
  %39 = load ptr, ptr %5, align 8, !tbaa !3
  %40 = getelementptr inbounds [1024 x i8], ptr %11, i64 0, i64 0
  %41 = call ptr (ptr, ptr, ...) @h5tools_str_append(ptr noundef %39, ptr noundef @.str, ptr noundef %40)
  %42 = load i64, ptr %10, align 8, !tbaa !17
  %43 = call i32 @H5Sclose(i64 noundef %42)
  br label %44

44:                                               ; preds = %33, %26
  %45 = load i64, ptr %9, align 8, !tbaa !17
  %46 = call i32 @H5Dclose(i64 noundef %45)
  br label %47

47:                                               ; preds = %44, %19
  br label %71

48:                                               ; preds = %14
  %49 = load i32, ptr %7, align 4, !tbaa !15
  %50 = icmp eq i32 %49, 0
  br i1 %50, label %51, label %70

51:                                               ; preds = %48
  %52 = load i64, ptr %6, align 8, !tbaa !17
  %53 = load i32, ptr %7, align 4, !tbaa !15
  %54 = load ptr, ptr %8, align 8, !tbaa !46
  %55 = call i64 @H5Rdereference2(i64 noundef %52, i64 noundef 0, i32 noundef %53, ptr noundef %54)
  store i64 %55, ptr %9, align 8, !tbaa !17
  %56 = load i64, ptr %9, align 8, !tbaa !17
  %57 = icmp sge i64 %56, 0
  br i1 %57, label %58, label %69

58:                                               ; preds = %51
  %59 = load i64, ptr %9, align 8, !tbaa !17
  %60 = load i32, ptr %7, align 4, !tbaa !15
  %61 = load ptr, ptr %8, align 8, !tbaa !46
  %62 = getelementptr inbounds [1024 x i8], ptr %11, i64 0, i64 0
  %63 = call i64 @H5Rget_name(i64 noundef %59, i32 noundef %60, ptr noundef %61, ptr noundef %62, i64 noundef 1024)
  %64 = load ptr, ptr %5, align 8, !tbaa !3
  %65 = getelementptr inbounds [1024 x i8], ptr %11, i64 0, i64 0
  %66 = call ptr (ptr, ptr, ...) @h5tools_str_append(ptr noundef %64, ptr noundef @.str, ptr noundef %65)
  %67 = load i64, ptr %9, align 8, !tbaa !17
  %68 = call i32 @H5Dclose(i64 noundef %67)
  br label %69

69:                                               ; preds = %58, %51
  br label %70

70:                                               ; preds = %69, %48
  br label %71

71:                                               ; preds = %70, %47
  %72 = load ptr, ptr %5, align 8, !tbaa !3
  %73 = call ptr (ptr, ptr, ...) @h5tools_str_append(ptr noundef %72, ptr noundef @.str.64)
  br label %74

74:                                               ; preds = %71
  br label %75

75:                                               ; preds = %74
  br label %76

76:                                               ; preds = %75
  call void @llvm.lifetime.end.p0(i64 1024, ptr %11) #12
  call void @llvm.lifetime.end.p0(i64 8, ptr %10) #12
  call void @llvm.lifetime.end.p0(i64 8, ptr %9) #12
  ret void
}