; Function Attrs: nounwind uwtable
define void @h5tools_str_sprint_old_reference(ptr noundef captures(none) %0, i64 noundef %1, i32 noundef %2, ptr noundef %3) local_unnamed_addr #4 {
  %5 = alloca [1024 x i8], align 16
  call void @llvm.lifetime.start.p0(i64 1024, ptr nonnull %5) #21
  %6 = tail call ptr (ptr, ptr, ...) @h5tools_str_append(ptr noundef %0, ptr noundef nonnull @.str.63)
  switch i32 %2, label %24 [
    i32 1, label %7
    i32 0, label %17
  ]

7:                                                ; preds = %4
  %8 = tail call i64 @H5Rdereference2(i64 noundef %1, i64 noundef 0, i32 noundef 1, ptr noundef %3) #21
  %9 = icmp sgt i64 %8, -1
  br i1 %9, label %10, label %24

10:                                               ; preds = %7
  %11 = tail call i64 @H5Rget_region(i64 noundef %1, i32 noundef 1, ptr noundef %3) #21
  %12 = icmp sgt i64 %11, -1
  br i1 %12, label %13, label %.sink.split

13:                                               ; preds = %10
  %14 = call i64 @H5Rget_name(i64 noundef %8, i32 noundef 1, ptr noundef %3, ptr noundef nonnull %5, i64 noundef 1024) #21
  %15 = call ptr (ptr, ptr, ...) @h5tools_str_append(ptr noundef %0, ptr noundef nonnull @.str, ptr noundef nonnull %5)
  %16 = call i32 @H5Sclose(i64 noundef %11) #21
  br label %.sink.split

17:                                               ; preds = %4
  %18 = tail call i64 @H5Rdereference2(i64 noundef %1, i64 noundef 0, i32 noundef 0, ptr noundef %3) #21
  %19 = icmp sgt i64 %18, -1
  br i1 %19, label %20, label %24

20:                                               ; preds = %17
  %21 = call i64 @H5Rget_name(i64 noundef %18, i32 noundef 0, ptr noundef %3, ptr noundef nonnull %5, i64 noundef 1024) #21
  %22 = call ptr (ptr, ptr, ...) @h5tools_str_append(ptr noundef %0, ptr noundef nonnull @.str, ptr noundef nonnull %5)
  br label %.sink.split

.sink.split:                                      ; preds = %10, %13, %20
  %.sink = phi i64 [ %18, %20 ], [ %8, %13 ], [ %8, %10 ]
  %23 = call i32 @H5Dclose(i64 noundef %.sink) #21
  br label %24

24:                                               ; preds = %.sink.split, %4, %17, %7
  %25 = call ptr (ptr, ptr, ...) @h5tools_str_append(ptr noundef %0, ptr noundef nonnull @.str.64)
  call void @llvm.lifetime.end.p0(i64 1024, ptr nonnull %5) #21
  ret void
}